target datalayout = "e-m:e-p270:32:32-p271:32:32-p272:64:64-i64:64-i128:128-f80:128-n8:16:32:64-S128"
target triple = "x86_64-pc-linux-gnu"

; Function Attrs: inlinehint nounwind uwtable
define internal i32 @Abc_TtIsConst0(ptr noundef %0, i32 noundef %1) #2 {
  %3 = alloca i32, align 4
  %4 = alloca ptr, align 8
  %5 = alloca i32, align 4
  %6 = alloca i32, align 4
  %7 = alloca i32, align 4
  store ptr %0, ptr %4, align 8, !tbaa !3
  store i32 %1, ptr %5, align 4, !tbaa !8
  call void @llvm.lifetime.start.p0(i64 4, ptr %6) #12
  store i32 0, ptr %6, align 4, !tbaa !8
  br label %8

8:                                                ; preds = %21, %2
  %9 = load i32, ptr %6, align 4, !tbaa !8
  %10 = load i32, ptr %5, align 4, !tbaa !8
  %11 = icmp slt i32 %9, %10
  br i1 %11, label %12, label %24

12:                                               ; preds = %8
  %13 = load ptr, ptr %4, align 8, !tbaa !3
  %14 = load i32, ptr %6, align 4, !tbaa !8
  %15 = sext i32 %14 to i64
  %16 = getelementptr inbounds i64, ptr %13, i64 %15
  %17 = load i64, ptr %16, align 8, !tbaa !10
  %18 = icmp ne i64 %17, 0
  br i1 %18, label %19, label %20

19:                                               ; preds = %12
  store i32 0, ptr %3, align 4
  store i32 1, ptr %7, align 4
  br label %25

20:                                               ; preds = %12
  br label %21

21:                                               ; preds = %20
  %22 = load i32, ptr %6, align 4, !tbaa !8
  %23 = add nsw i32 %22, 1
  store i32 %23, ptr %6, align 4, !tbaa !8
  br label %8, !llvm.loop !27

24:                                               ; preds = %8
  store i32 1, ptr %3, align 4
  store i32 1, ptr %7, align 4
  br label %25

25:                                               ; preds = %24, %19
  call void @llvm.lifetime.end.p0(i64 4, ptr %6) #12
  %26 = load i32, ptr %3, align 4
  ret i32 %26
}

; Function Attrs: inlinehint nounwind uwtable
define internal i32 @Abc_TtIsConst1(ptr noundef %0, i32 noundef %1) #2 {
  %3 = alloca i32, align 4
  %4 = alloca ptr, align 8
  %5 = alloca i32, align 4
  %6 = alloca i32, align 4
  %7 = alloca i32, align 4
  store ptr %0, ptr %4, align 8, !tbaa !3
  store i32 %1, ptr %5, align 4, !tbaa !8
  call void @llvm.lifetime.start.p0(i64 4, ptr %6) #12
  store i32 0, ptr %6, align 4, !tbaa !8
  br label %8

8:                                                ; preds = %22, %2
  %9 = load i32, ptr %6, align 4, !tbaa !8
  %10 = load i32, ptr %5, align 4, !tbaa !8
  %11 = icmp slt i32 %9, %10
  br i1 %11, label %12, label %25

12:                                               ; preds = %8
  %13 = load ptr, ptr %4, align 8, !tbaa !3
  %14 = load i32, ptr %6, align 4, !tbaa !8
  %15 = sext i32 %14 to i64
  %16 = getelementptr inbounds i64, ptr %13, i64 %15
  %17 = load i64, ptr %16, align 8, !tbaa !10
  %18 = xor i64 %17, -1
  %19 = icmp ne i64 %18, 0
  br i1 %19, label %20, label %21

20:                                               ; preds = %12
  store i32 0, ptr %3, align 4
  store i32 1, ptr %7, align 4
  br label %26

21:                                               ; preds = %12
  br label %22

22:                                               ; preds = %21
  %23 = load i32, ptr %6, align 4, !tbaa !8
  %24 = add nsw i32 %23, 1
  store i32 %24, ptr %6, align 4, !tbaa !8
  br label %8, !llvm.loop !26

25:                                               ; preds = %8
  store i32 1, ptr %3, align 4
  store i32 1, ptr %7, align 4
  br label %26

26:                                               ; preds = %25, %20
  call void @llvm.lifetime.end.p0(i64 4, ptr %6) #12
  %27 = load i32, ptr %3, align 4
  ret i32 %27
}

; Function Attrs: nounwind uwtable
define i32 @Abc_TtCountOnesInCofsFast_rec(ptr noundef %0, i32 noundef %1, i32 noundef %2, ptr noundef %3) #0 {
  %5 = alloca i32, align 4
  %6 = alloca ptr, align 8
  %7 = alloca i32, align 4
  %8 = alloca i32, align 4
  %9 = alloca ptr, align 8
  %10 = alloca i32, align 4
  %11 = alloca i32, align 4
  %12 = alloca i32, align 4
  %13 = alloca i32, align 4
  store ptr %0, ptr %6, align 8, !tbaa !3
  store i32 %1, ptr %7, align 4, !tbaa !8
  store i32 %2, ptr %8, align 4, !tbaa !8
  store ptr %3, ptr %9, align 8, !tbaa !14
  call void @llvm.lifetime.start.p0(i64 4, ptr %10) #12
  call void @llvm.lifetime.start.p0(i64 4, ptr %11) #12
  %14 = load i32, ptr %8, align 4, !tbaa !8
  %15 = icmp eq i32 %14, 1
  br i1 %15, label %16, label %23

16:                                               ; preds = %4
  %17 = load ptr, ptr %6, align 8, !tbaa !3
  %18 = getelementptr inbounds i64, ptr %17, i64 0
  %19 = load i64, ptr %18, align 8, !tbaa !10
  %20 = load i32, ptr %7, align 4, !tbaa !8
  %21 = load ptr, ptr %9, align 8, !tbaa !14
  %22 = call i32 @Abc_TtCountOnesInCofsFast6_rec(i64 noundef %19, i32 noundef %20, i32 noundef 8, ptr noundef %21)
  store i32 %22, ptr %5, align 4
  store i32 1, ptr %12, align 4
  br label %91

23:                                               ; preds = %4
  %24 = load ptr, ptr %6, align 8, !tbaa !3
  %25 = getelementptr inbounds i64, ptr %24, i64 0
  %26 = load i64, ptr %25, align 8, !tbaa !10
  %27 = and i64 %26, 1
  %28 = icmp ne i64 %27, 0
  br i1 %28, label %29, label %55

29:                                               ; preds = %23
  %30 = load ptr, ptr %6, align 8, !tbaa !3
  %31 = load i32, ptr %8, align 4, !tbaa !8
  %32 = call i32 @Abc_TtIsConst1(ptr noundef %30, i32 noundef %31)
  %33 = icmp ne i32 %32, 0
  br i1 %33, label %34, label %54

34:                                               ; preds = %29
  call void @llvm.lifetime.start.p0(i64 4, ptr %13) #12
  store i32 0, ptr %13, align 4, !tbaa !8
  br label %35

35:                                               ; preds = %48, %34
  %36 = load i32, ptr %13, align 4, !tbaa !8
  %37 = load i32, ptr %7, align 4, !tbaa !8
  %38 = icmp sle i32 %36, %37
  br i1 %38, label %39, label %51

39:                                               ; preds = %35
  %40 = load i32, ptr %8, align 4, !tbaa !8
  %41 = mul nsw i32 %40, 32
  %42 = load ptr, ptr %9, align 8, !tbaa !14
  %43 = load i32, ptr %13, align 4, !tbaa !8
  %44 = sext i32 %43 to i64
  %45 = getelementptr inbounds i32, ptr %42, i64 %44
  %46 = load i32, ptr %45, align 4, !tbaa !8
  %47 = add nsw i32 %46, %41
  store i32 %47, ptr %45, align 4, !tbaa !8
  br label %48

48:                                               ; preds = %39
  %49 = load i32, ptr %13, align 4, !tbaa !8
  %50 = add nsw i32 %49, 1
  store i32 %50, ptr %13, align 4, !tbaa !8
  br label %35, !llvm.loop !25

51:                                               ; preds = %35
  %52 = load i32, ptr %8, align 4, !tbaa !8
  %53 = mul nsw i32 %52, 64
  store i32 %53, ptr %5, align 4
  store i32 1, ptr %12, align 4
  call void @llvm.lifetime.end.p0(i64 4, ptr %13) #12
  br label %91

54:                                               ; preds = %29
  br label %62

55:                                               ; preds = %23
  %56 = load ptr, ptr %6, align 8, !tbaa !3
  %57 = load i32, ptr %8, align 4, !tbaa !8
  %58 = call i32 @Abc_TtIsConst0(ptr noundef %56, i32 noundef %57)
  %59 = icmp ne i32 %58, 0
  br i1 %59, label %60, label %61

60:                                               ; preds = %55
  store i32 0, ptr %5, align 4
  store i32 1, ptr %12, align 4
  br label %91

61:                                               ; preds = %55
  br label %62

62:                                               ; preds = %61, %54
  %63 = load ptr, ptr %6, align 8, !tbaa !3
  %64 = load i32, ptr %7, align 4, !tbaa !8
  %65 = sub nsw i32 %64, 1
  %66 = load i32, ptr %8, align 4, !tbaa !8
  %67 = sdiv i32 %66, 2
  %68 = load ptr, ptr %9, align 8, !tbaa !14
  %69 = call i32 @Abc_TtCountOnesInCofsFast_rec(ptr noundef %63, i32 noundef %65, i32 noundef %67, ptr noundef %68)
  store i32 %69, ptr %10, align 4, !tbaa !8
  %70 = load ptr, ptr %6, align 8, !tbaa !3
  %71 = load i32, ptr %8, align 4, !tbaa !8
  %72 = sdiv i32 %71, 2
  %73 = sext i32 %72 to i64
  %74 = getelementptr inbounds i64, ptr %70, i64 %73
  %75 = load i32, ptr %7, align 4, !tbaa !8
  %76 = sub nsw i32 %75, 1
  %77 = load i32, ptr %8, align 4, !tbaa !8
  %78 = sdiv i32 %77, 2
  %79 = load ptr, ptr %9, align 8, !tbaa !14
  %80 = call i32 @Abc_TtCountOnesInCofsFast_rec(ptr noundef %74, i32 noundef %76, i32 noundef %78, ptr noundef %79)
  store i32 %80, ptr %11, align 4, !tbaa !8
  %81 = load i32, ptr %10, align 4, !tbaa !8
  %82 = load ptr, ptr %9, align 8, !tbaa !14
  %83 = load i32, ptr %7, align 4, !tbaa !8
  %84 = sext i32 %83 to i64
  %85 = getelementptr inbounds i32, ptr %82, i64 %84
  %86 = load i32, ptr %85, align 4, !tbaa !8
  %87 = add nsw i32 %86, %81
  store i32 %87, ptr %85, align 4, !tbaa !8
  %88 = load i32, ptr %10, align 4, !tbaa !8
  %89 = load i32, ptr %11, align 4, !tbaa !8
  %90 = add nsw i32 %88, %89
  store i32 %90, ptr %5, align 4
  store i32 1, ptr %12, align 4
  br label %91

91:                                               ; preds = %62, %60, %51, %16
  call void @llvm.lifetime.end.p0(i64 4, ptr %11) #12
  call void @llvm.lifetime.end.p0(i64 4, ptr %10) #12
  %92 = load i32, ptr %5, align 4
  ret i32 %92
}