; Function Attrs: nofree nosync nounwind memory(argmem: readwrite) uwtable
define i32 @Abc_TtCountOnesInCofsFast_rec(ptr noundef %0, i32 noundef %1, i32 noundef %2, ptr noundef %3) local_unnamed_addr #3 {
  %5 = icmp eq i32 %2, 1
  %6 = load i64, ptr %0, align 8, !tbaa !3
  br i1 %5, label %7, label %9

7:                                                ; preds = %4
  %8 = tail call i32 @Abc_TtCountOnesInCofsFast6_rec(i64 noundef %6, i32 noundef %1, i32 noundef 8, ptr noundef %3)
  br label %common.ret55

9:                                                ; preds = %4
  %10 = and i64 %6, 1
  %.not = icmp eq i64 %10, 0
  %11 = icmp sgt i32 %2, 0
  br i1 %.not, label %23, label %12

12:                                               ; preds = %9
  br i1 %11, label %.lr.ph.preheader.i, label %Abc_TtIsConst1.exit

.lr.ph.preheader.i:                               ; preds = %12
  %wide.trip.count.i = zext nneg i32 %2 to i64
  br label %.lr.ph.i

13:                                               ; preds = %.lr.ph.i
  %indvars.iv.next.i = add nuw nsw i64 %indvars.iv.i, 1
  %exitcond.not.i = icmp eq i64 %indvars.iv.next.i, %wide.trip.count.i
  br i1 %exitcond.not.i, label %Abc_TtIsConst1.exit, label %.lr.ph.i, !llvm.loop !20

.lr.ph.i:                                         ; preds = %13, %.lr.ph.preheader.i
  %indvars.iv.i = phi i64 [ 0, %.lr.ph.preheader.i ], [ %indvars.iv.next.i, %13 ]
  %14 = getelementptr inbounds nuw i64, ptr %0, i64 %indvars.iv.i
  %15 = load i64, ptr %14, align 8, !tbaa !3
  %.not.i = icmp eq i64 %15, -1
  br i1 %.not.i, label %13, label %Abc_TtIsConst0.exit

Abc_TtIsConst1.exit:                              ; preds = %13, %12
  %.not3448 = icmp slt i32 %1, 0
  br i1 %.not3448, label %._crit_edge, label %.lr.ph

.lr.ph:                                           ; preds = %Abc_TtIsConst1.exit
  %16 = shl nsw i32 %2, 5
  %17 = add nuw i32 %1, 1
  %wide.trip.count = zext i32 %17 to i64
  br label %18

18:                                               ; preds = %.lr.ph, %18
  %indvars.iv = phi i64 [ 0, %.lr.ph ], [ %indvars.iv.next, %18 ]
  %19 = getelementptr inbounds nuw i32, ptr %3, i64 %indvars.iv
  %20 = load i32, ptr %19, align 4, !tbaa !10
  %21 = add nsw i32 %20, %16
  store i32 %21, ptr %19, align 4, !tbaa !10
  %indvars.iv.next = add nuw nsw i64 %indvars.iv, 1
  %exitcond.not = icmp eq i64 %indvars.iv.next, %wide.trip.count
  br i1 %exitcond.not, label %._crit_edge, label %18, !llvm.loop !21

._crit_edge:                                      ; preds = %18, %Abc_TtIsConst1.exit
  %22 = shl nsw i32 %2, 6
  br label %common.ret55

23:                                               ; preds = %9
  br i1 %11, label %.lr.ph.preheader.i36, label %common.ret55

.lr.ph.preheader.i36:                             ; preds = %23
  %wide.trip.count.i37 = zext nneg i32 %2 to i64
  br label %.lr.ph.i38

24:                                               ; preds = %.lr.ph.i38
  %indvars.iv.next.i41 = add nuw nsw i64 %indvars.iv.i39, 1
  %exitcond.not.i42 = icmp eq i64 %indvars.iv.next.i41, %wide.trip.count.i37
  br i1 %exitcond.not.i42, label %common.ret55, label %.lr.ph.i38, !llvm.loop !22

.lr.ph.i38:                                       ; preds = %24, %.lr.ph.preheader.i36
  %indvars.iv.i39 = phi i64 [ 0, %.lr.ph.preheader.i36 ], [ %indvars.iv.next.i41, %24 ]
  %25 = getelementptr inbounds nuw i64, ptr %0, i64 %indvars.iv.i39
  %26 = load i64, ptr %25, align 8, !tbaa !3
  %.not.i40 = icmp eq i64 %26, 0
  br i1 %.not.i40, label %24, label %Abc_TtIsConst0.exit

common.ret55:                                     ; preds = %23, %._crit_edge, %7, %24, %Abc_TtIsConst0.exit
  %common.ret55.op = phi i32 [ %37, %Abc_TtIsConst0.exit ], [ %8, %7 ], [ %22, %._crit_edge ], [ 0, %23 ], [ 0, %24 ]
  ret i32 %common.ret55.op

Abc_TtIsConst0.exit:                              ; preds = %.lr.ph.i, %.lr.ph.i38
  %27 = add nsw i32 %1, -1
  %28 = sdiv i32 %2, 2
  %29 = tail call i32 @Abc_TtCountOnesInCofsFast_rec(ptr noundef nonnull %0, i32 noundef %27, i32 noundef %28, ptr noundef %3)
  %30 = sext i32 %28 to i64
  %31 = getelementptr inbounds i64, ptr %0, i64 %30
  %32 = tail call i32 @Abc_TtCountOnesInCofsFast_rec(ptr noundef nonnull %31, i32 noundef %27, i32 noundef %28, ptr noundef %3)
  %33 = sext i32 %1 to i64
  %34 = getelementptr inbounds i32, ptr %3, i64 %33
  %35 = load i32, ptr %34, align 4, !tbaa !10
  %36 = add nsw i32 %35, %29
  store i32 %36, ptr %34, align 4, !tbaa !10
  %37 = add nsw i32 %32, %29
  br label %common.ret55
}